; Function Attrs: mustprogress uwtable
define hidden void @_ZNK4cvc58internal20FloatingPointLiteral8absoluteEv(ptr dead_on_unwind noalias writable sret(%"class.cvc5::internal::FloatingPointLiteral") align 8 %0, ptr noundef nonnull align 8 dereferenceable(64) %1) local_unnamed_addr #4 align 2 personality ptr @__gxx_personality_v0 {
  %3 = alloca %"class.symfpu::unpackedFloat", align 8
  %4 = getelementptr inbounds nuw i8, ptr %1, i64 8
  call void @_ZN6symfpu8absoluteIN4cvc58internal13symfpuLiteral6traitsEEENS_13unpackedFloatIT_EERKNS6_3fptERKS7_(ptr dead_on_unwind nonnull writable sret(%"class.symfpu::unpackedFloat") align 8 %3, ptr noundef nonnull align 4 dereferenceable(8) %1, ptr noundef nonnull align 8 dereferenceable(56) %4)
  invoke void @_ZN4cvc58internal17FloatingPointSizeC1ERKS1_(ptr noundef nonnull align 8 dereferenceable(64) %0, ptr noundef nonnull align 4 dereferenceable(8) %1)
          to label %.noexc unwind label %37

.noexc:                                           ; preds = %2
  %5 = getelementptr inbounds nuw i8, ptr %0, i64 8
  %6 = load i8, ptr %3, align 8, !tbaa !15, !range !21, !noundef !22
  store i8 %6, ptr %5, align 8, !tbaa !15
  %7 = getelementptr inbounds nuw i8, ptr %0, i64 9
  %8 = getelementptr inbounds nuw i8, ptr %3, i64 1
  %9 = load i8, ptr %8, align 1, !tbaa !19, !range !21, !noundef !22
  store i8 %9, ptr %7, align 1, !tbaa !19
  %10 = getelementptr inbounds nuw i8, ptr %0, i64 10
  %11 = getelementptr inbounds nuw i8, ptr %3, i64 2
  %12 = load i8, ptr %11, align 2, !tbaa !20, !range !21, !noundef !22
  store i8 %12, ptr %10, align 2, !tbaa !20
  %13 = getelementptr inbounds nuw i8, ptr %0, i64 11
  %14 = getelementptr inbounds nuw i8, ptr %3, i64 3
  %15 = load i8, ptr %14, align 1, !tbaa !23, !range !21, !noundef !22
  store i8 %15, ptr %13, align 1, !tbaa !23
  %16 = getelementptr inbounds nuw i8, ptr %0, i64 16
  %17 = getelementptr inbounds nuw i8, ptr %3, i64 8
  %18 = load i32, ptr %17, align 8, !tbaa !9
  store i32 %18, ptr %16, align 8, !tbaa !9
  %19 = getelementptr inbounds nuw i8, ptr %0, i64 24
  %20 = getelementptr inbounds nuw i8, ptr %3, i64 16
  invoke void @__gmpz_init_set(ptr noundef nonnull align 8 dereferenceable(16) %19, ptr noundef nonnull align 8 dereferenceable(16) %20)
          to label %.noexc2 unwind label %37

.noexc2:                                          ; preds = %.noexc
  %21 = getelementptr inbounds nuw i8, ptr %0, i64 40
  %22 = getelementptr inbounds nuw i8, ptr %3, i64 32
  %23 = load i32, ptr %22, align 8, !tbaa !9
  store i32 %23, ptr %21, align 8, !tbaa !9
  %24 = getelementptr inbounds nuw i8, ptr %0, i64 48
  %25 = getelementptr inbounds nuw i8, ptr %3, i64 40
  invoke void @__gmpz_init_set(ptr noundef nonnull align 8 dereferenceable(16) %24, ptr noundef nonnull align 8 dereferenceable(16) %25)
          to label %_ZN4cvc58internal20FloatingPointLiteralC2ERKNS0_17FloatingPointSizeEN6symfpu13unpackedFloatINS0_13symfpuLiteral6traitsEEE.exit unwind label %26

26:                                               ; preds = %.noexc2
  %27 = landingpad { ptr, i32 }
          cleanup
  invoke void @__gmpz_clear(ptr noundef nonnull align 8 dereferenceable(16) %19)
          to label %.body unwind label %28

28:                                               ; preds = %26
  %29 = landingpad { ptr, i32 }
          catch ptr null
  %30 = extractvalue { ptr, i32 } %29, 0
  call void @__clang_call_terminate(ptr %30) #17
  unreachable

_ZN4cvc58internal20FloatingPointLiteralC2ERKNS0_17FloatingPointSizeEN6symfpu13unpackedFloatINS0_13symfpuLiteral6traitsEEE.exit: ; preds = %.noexc2
  invoke void @__gmpz_clear(ptr noundef nonnull align 8 dereferenceable(16) %25)
          to label %_ZN4cvc58internal9BitVectorD2Ev.exit.i unwind label %31

31:                                               ; preds = %_ZN4cvc58internal20FloatingPointLiteralC2ERKNS0_17FloatingPointSizeEN6symfpu13unpackedFloatINS0_13symfpuLiteral6traitsEEE.exit
  %32 = landingpad { ptr, i32 }
          catch ptr null
  %33 = extractvalue { ptr, i32 } %32, 0
  call void @__clang_call_terminate(ptr %33) #17
  unreachable

_ZN4cvc58internal9BitVectorD2Ev.exit.i:           ; preds = %_ZN4cvc58internal20FloatingPointLiteralC2ERKNS0_17FloatingPointSizeEN6symfpu13unpackedFloatINS0_13symfpuLiteral6traitsEEE.exit
  invoke void @__gmpz_clear(ptr noundef nonnull align 8 dereferenceable(16) %20)
          to label %_ZN6symfpu13unpackedFloatIN4cvc58internal13symfpuLiteral6traitsEED2Ev.exit unwind label %34

34:                                               ; preds = %_ZN4cvc58internal9BitVectorD2Ev.exit.i
  %35 = landingpad { ptr, i32 }
          catch ptr null
  %36 = extractvalue { ptr, i32 } %35, 0
  call void @__clang_call_terminate(ptr %36) #17
  unreachable

_ZN6symfpu13unpackedFloatIN4cvc58internal13symfpuLiteral6traitsEED2Ev.exit: ; preds = %_ZN4cvc58internal9BitVectorD2Ev.exit.i
  ret void

37:                                               ; preds = %.noexc, %2
  %38 = landingpad { ptr, i32 }
          cleanup
  br label %.body

.body:                                            ; preds = %26, %37
  %eh.lpad-body = phi { ptr, i32 } [ %38, %37 ], [ %27, %26 ]
  call void @_ZN6symfpu13unpackedFloatIN4cvc58internal13symfpuLiteral6traitsEED2Ev(ptr noundef nonnull align 8 dereferenceable(56) %3) #16
  resume { ptr, i32 } %eh.lpad-body
}